target datalayout = "e-m:e-p270:32:32-p271:32:32-p272:64:64-i64:64-i128:128-f80:128-n8:16:32:64-S128"
target triple = "x86_64-pc-linux-gnu"

%struct.Abc_IffMan_t_ = type { ptr, ptr, i32, ptr }
%struct.Abc_Ntk_t_ = type { i32, i32, ptr, ptr, ptr, ptr, ptr, ptr, ptr, ptr, ptr, ptr, ptr, [11 x i32], i32, i32, i32, i32, ptr, i32, ptr, ptr, i32, i32, i32, double, i32, %struct.Vec_Int_t_, ptr, ptr, ptr, ptr, ptr, float, i32, ptr, ptr, ptr, ptr, ptr, ptr, ptr, ptr, ptr, ptr, ptr, ptr, ptr, ptr, ptr, ptr, ptr, ptr, ptr, ptr, ptr, ptr }
%struct.Vec_Int_t_ = type { i32, i32, ptr }
%struct.Ifif_Par_t_ = type { i32, ptr, [32 x float], float, i32, i32, i32, i32 }
%struct.Abc_Obj_t_ = type { ptr, ptr, i32, i32, %struct.Vec_Int_t_, %struct.Vec_Int_t_, %union.anon, %union.anon.0 }
%union.anon = type { ptr }
%union.anon.0 = type { ptr }
%struct.Vec_Ptr_t_ = type { i32, i32, ptr }
%struct.Abc_IffObj_t_ = type { [7 x float] }

; Function Attrs: inlinehint nounwind uwtable
define internal ptr @Abc_IffObj(ptr noundef %0, i32 noundef %1) #3 {
  %3 = alloca ptr, align 8
  %4 = alloca i32, align 4
  store ptr %0, ptr %3, align 8, !tbaa !10
  store i32 %1, ptr %4, align 4, !tbaa !37
  %5 = load ptr, ptr %3, align 8, !tbaa !10
  %6 = getelementptr inbounds nuw %struct.Abc_IffMan_t_, ptr %5, i32 0, i32 3
  %7 = load ptr, ptr %6, align 8, !tbaa !18
  %8 = load i32, ptr %4, align 4, !tbaa !37
  %9 = sext i32 %8 to i64
  %10 = getelementptr inbounds %struct.Abc_IffObj_t_, ptr %7, i64 %9
  ret ptr %10
}

; Function Attrs: inlinehint nounwind uwtable
define internal i32 @Abc_ObjId(ptr noundef %0) #3 {
  %2 = alloca ptr, align 8
  store ptr %0, ptr %2, align 8, !tbaa !35
  %3 = load ptr, ptr %2, align 8, !tbaa !35
  %4 = getelementptr inbounds nuw %struct.Abc_Obj_t_, ptr %3, i32 0, i32 2
  %5 = load i32, ptr %4, align 8, !tbaa !58
  ret i32 %5
}

; Function Attrs: inlinehint nounwind uwtable
define internal i32 @Abc_ObjIsCi(ptr noundef %0) #3 {
  %2 = alloca ptr, align 8
  store ptr %0, ptr %2, align 8, !tbaa !35
  %3 = load ptr, ptr %2, align 8, !tbaa !35
  %4 = getelementptr inbounds nuw %struct.Abc_Obj_t_, ptr %3, i32 0, i32 3
  %5 = load i32, ptr %4, align 4
  %6 = and i32 %5, 15
  %7 = icmp eq i32 %6, 2
  br i1 %7, label %14, label %8

8:                                                ; preds = %1
  %9 = load ptr, ptr %2, align 8, !tbaa !35
  %10 = getelementptr inbounds nuw %struct.Abc_Obj_t_, ptr %9, i32 0, i32 3
  %11 = load i32, ptr %10, align 4
  %12 = and i32 %11, 15
  %13 = icmp eq i32 %12, 5
  br label %14

14:                                               ; preds = %8, %1
  %15 = phi i1 [ true, %1 ], [ %13, %8 ]
  %16 = zext i1 %15 to i32
  ret i32 %16
}

; Function Attrs: inlinehint nounwind uwtable
define internal ptr @Abc_ObjFanin(ptr noundef %0, i32 noundef %1) #3 {
  %3 = alloca ptr, align 8
  %4 = alloca i32, align 4
  store ptr %0, ptr %3, align 8, !tbaa !35
  store i32 %1, ptr %4, align 4, !tbaa !37
  %5 = load ptr, ptr %3, align 8, !tbaa !35
  %6 = getelementptr inbounds nuw %struct.Abc_Obj_t_, ptr %5, i32 0, i32 0
  %7 = load ptr, ptr %6, align 8, !tbaa !46
  %8 = getelementptr inbounds nuw %struct.Abc_Ntk_t_, ptr %7, i32 0, i32 5
  %9 = load ptr, ptr %8, align 8, !tbaa !19
  %10 = getelementptr inbounds nuw %struct.Vec_Ptr_t_, ptr %9, i32 0, i32 2
  %11 = load ptr, ptr %10, align 8, !tbaa !47
  %12 = load ptr, ptr %3, align 8, !tbaa !35
  %13 = getelementptr inbounds nuw %struct.Abc_Obj_t_, ptr %12, i32 0, i32 4
  %14 = getelementptr inbounds nuw %struct.Vec_Int_t_, ptr %13, i32 0, i32 2
  %15 = load ptr, ptr %14, align 8, !tbaa !49
  %16 = load i32, ptr %4, align 4, !tbaa !37
  %17 = sext i32 %16 to i64
  %18 = getelementptr inbounds i32, ptr %15, i64 %17
  %19 = load i32, ptr %18, align 4, !tbaa !37
  %20 = sext i32 %19 to i64
  %21 = getelementptr inbounds ptr, ptr %11, i64 %20
  %22 = load ptr, ptr %21, align 8, !tbaa !50
  ret ptr %22
}

; Function Attrs: inlinehint nounwind uwtable
define internal float @Abc_MaxFloat(float noundef %0, float noundef %1) #3 {
  %3 = alloca float, align 4
  %4 = alloca float, align 4
  store float %0, ptr %3, align 4, !tbaa !40
  store float %1, ptr %4, align 4, !tbaa !40
  %5 = load float, ptr %3, align 4, !tbaa !40
  %6 = load float, ptr %4, align 4, !tbaa !40
  %7 = fcmp ogt float %5, %6
  br i1 %7, label %8, label %10

8:                                                ; preds = %2
  %9 = load float, ptr %3, align 4, !tbaa !40
  br label %12

10:                                               ; preds = %2
  %11 = load float, ptr %4, align 4, !tbaa !40
  br label %12

12:                                               ; preds = %10, %8
  %13 = phi float [ %9, %8 ], [ %11, %10 ]
  ret float %13
}

; Function Attrs: inlinehint nounwind uwtable
define internal float @Abc_MinFloat(float noundef %0, float noundef %1) #3 {
  %3 = alloca float, align 4
  %4 = alloca float, align 4
  store float %0, ptr %3, align 4, !tbaa !40
  store float %1, ptr %4, align 4, !tbaa !40
  %5 = load float, ptr %3, align 4, !tbaa !40
  %6 = load float, ptr %4, align 4, !tbaa !40
  %7 = fcmp olt float %5, %6
  br i1 %7, label %8, label %10

8:                                                ; preds = %2
  %9 = load float, ptr %3, align 4, !tbaa !40
  br label %12

10:                                               ; preds = %2
  %11 = load float, ptr %4, align 4, !tbaa !40
  br label %12

12:                                               ; preds = %10, %8
  %13 = phi float [ %9, %8 ], [ %11, %10 ]
  ret float %13
}

; Function Attrs: inlinehint nounwind uwtable
define internal float @Abc_IffDelay(ptr noundef %0, ptr noundef %1, i32 noundef %2) #3 {
  %4 = alloca ptr, align 8
  %5 = alloca ptr, align 8
  %6 = alloca i32, align 4
  store ptr %0, ptr %4, align 8, !tbaa !10
  store ptr %1, ptr %5, align 8, !tbaa !35
  store i32 %2, ptr %6, align 4, !tbaa !37
  %7 = load ptr, ptr %4, align 8, !tbaa !10
  %8 = load ptr, ptr %5, align 8, !tbaa !35
  %9 = call i32 @Abc_ObjId(ptr noundef %8)
  %10 = call ptr @Abc_IffObj(ptr noundef %7, i32 noundef %9)
  %11 = getelementptr inbounds nuw %struct.Abc_IffObj_t_, ptr %10, i32 0, i32 0
  %12 = load i32, ptr %6, align 4, !tbaa !37
  %13 = sext i32 %12 to i64
  %14 = getelementptr inbounds [7 x float], ptr %11, i64 0, i64 %13
  %15 = load float, ptr %14, align 4, !tbaa !40
  ret float %15
}

; Function Attrs: inlinehint nounwind uwtable
define internal i32 @Abc_ObjFaninNum(ptr noundef %0) #3 {
  %2 = alloca ptr, align 8
  store ptr %0, ptr %2, align 8, !tbaa !35
  %3 = load ptr, ptr %2, align 8, !tbaa !35
  %4 = getelementptr inbounds nuw %struct.Abc_Obj_t_, ptr %3, i32 0, i32 4
  %5 = getelementptr inbounds nuw %struct.Vec_Int_t_, ptr %4, i32 0, i32 1
  %6 = load i32, ptr %5, align 4, !tbaa !44
  ret i32 %6
}

; Function Attrs: nounwind uwtable
define void @Abc_ObjSortByDelay(ptr noundef %0, ptr noundef %1, i32 noundef %2, ptr noundef %3) #0 {
  %5 = alloca ptr, align 8
  %6 = alloca ptr, align 8
  %7 = alloca i32, align 4
  %8 = alloca ptr, align 8
  %9 = alloca ptr, align 8
  %10 = alloca i32, align 4
  %11 = alloca i32, align 4
  %12 = alloca i32, align 4
  %13 = alloca ptr, align 8
  store ptr %0, ptr %5, align 8, !tbaa !10
  store ptr %1, ptr %6, align 8, !tbaa !35
  store i32 %2, ptr %7, align 4, !tbaa !37
  store ptr %3, ptr %8, align 8, !tbaa !38
  call void @llvm.lifetime.start.p0(i64 8, ptr %9) #6
  call void @llvm.lifetime.start.p0(i64 4, ptr %10) #6
  call void @llvm.lifetime.start.p0(i64 4, ptr %11) #6
  call void @llvm.lifetime.start.p0(i64 4, ptr %12) #6
  store i32 0, ptr %12, align 4, !tbaa !37
  store i32 0, ptr %10, align 4, !tbaa !37
  br label %14

14:                                               ; preds = %107, %4
  %15 = load i32, ptr %10, align 4, !tbaa !37
  %16 = load ptr, ptr %6, align 8, !tbaa !35
  %17 = call i32 @Abc_ObjFaninNum(ptr noundef %16)
  %18 = icmp slt i32 %15, %17
  br i1 %18, label %19, label %23

19:                                               ; preds = %14
  %20 = load ptr, ptr %6, align 8, !tbaa !35
  %21 = load i32, ptr %10, align 4, !tbaa !37
  %22 = call ptr @Abc_ObjFanin(ptr noundef %20, i32 noundef %21)
  store ptr %22, ptr %9, align 8, !tbaa !35
  br label %23

23:                                               ; preds = %19, %14
  %24 = phi i1 [ false, %14 ], [ true, %19 ]
  br i1 %24, label %25, label %110

25:                                               ; preds = %23
  %26 = load ptr, ptr %9, align 8, !tbaa !35
  %27 = load ptr, ptr %8, align 8, !tbaa !38
  %28 = load i32, ptr %12, align 4, !tbaa !37
  %29 = add nsw i32 %28, 1
  store i32 %29, ptr %12, align 4, !tbaa !37
  %30 = sext i32 %28 to i64
  %31 = getelementptr inbounds ptr, ptr %27, i64 %30
  store ptr %26, ptr %31, align 8, !tbaa !35
  %32 = load ptr, ptr %9, align 8, !tbaa !35
  %33 = call i32 @Abc_ObjIsCi(ptr noundef %32)
  %34 = icmp ne i32 %33, 0
  br i1 %34, label %35, label %36

35:                                               ; preds = %25
  br label %107

36:                                               ; preds = %25
  %37 = load i32, ptr %12, align 4, !tbaa !37
  %38 = sub nsw i32 %37, 1
  store i32 %38, ptr %11, align 4, !tbaa !37
  br label %39

39:                                               ; preds = %103, %36
  %40 = load i32, ptr %11, align 4, !tbaa !37
  %41 = icmp sgt i32 %40, 0
  br i1 %41, label %42, label %106

42:                                               ; preds = %39
  %43 = load ptr, ptr %5, align 8, !tbaa !10
  %44 = load ptr, ptr %8, align 8, !tbaa !38
  %45 = load i32, ptr %11, align 4, !tbaa !37
  %46 = sub nsw i32 %45, 1
  %47 = sext i32 %46 to i64
  %48 = getelementptr inbounds ptr, ptr %44, i64 %47
  %49 = load ptr, ptr %48, align 8, !tbaa !35
  %50 = load i32, ptr %7, align 4, !tbaa !37
  %51 = call float @Abc_IffDelay(ptr noundef %43, ptr noundef %49, i32 noundef %50)
  %52 = load ptr, ptr %5, align 8, !tbaa !10
  %53 = getelementptr inbounds nuw %struct.Abc_IffMan_t_, ptr %52, i32 0, i32 1
  %54 = load ptr, ptr %53, align 8, !tbaa !16
  %55 = getelementptr inbounds nuw %struct.Ifif_Par_t_, ptr %54, i32 0, i32 2
  %56 = load i32, ptr %11, align 4, !tbaa !37
  %57 = sub nsw i32 %56, 1
  %58 = sext i32 %57 to i64
  %59 = getelementptr inbounds [32 x float], ptr %55, i64 0, i64 %58
  %60 = load float, ptr %59, align 4, !tbaa !40
  %61 = fadd float %51, %60
  %62 = load ptr, ptr %5, align 8, !tbaa !10
  %63 = load ptr, ptr %8, align 8, !tbaa !38
  %64 = load i32, ptr %11, align 4, !tbaa !37
  %65 = sext i32 %64 to i64
  %66 = getelementptr inbounds ptr, ptr %63, i64 %65
  %67 = load ptr, ptr %66, align 8, !tbaa !35
  %68 = load i32, ptr %7, align 4, !tbaa !37
  %69 = call float @Abc_IffDelay(ptr noundef %62, ptr noundef %67, i32 noundef %68)
  %70 = load ptr, ptr %5, align 8, !tbaa !10
  %71 = getelementptr inbounds nuw %struct.Abc_IffMan_t_, ptr %70, i32 0, i32 1
  %72 = load ptr, ptr %71, align 8, !tbaa !16
  %73 = getelementptr inbounds nuw %struct.Ifif_Par_t_, ptr %72, i32 0, i32 2
  %74 = load i32, ptr %11, align 4, !tbaa !37
  %75 = sext i32 %74 to i64
  %76 = getelementptr inbounds [32 x float], ptr %73, i64 0, i64 %75
  %77 = load float, ptr %76, align 4, !tbaa !40
  %78 = fadd float %69, %77
  %79 = fcmp olt float %61, %78
  br i1 %79, label %80, label %102

80:                                               ; preds = %42
  call void @llvm.lifetime.start.p0(i64 8, ptr %13) #6
  %81 = load ptr, ptr %8, align 8, !tbaa !38
  %82 = load i32, ptr %11, align 4, !tbaa !37
  %83 = sub nsw i32 %82, 1
  %84 = sext i32 %83 to i64
  %85 = getelementptr inbounds ptr, ptr %81, i64 %84
  %86 = load ptr, ptr %85, align 8, !tbaa !35
  store ptr %86, ptr %13, align 8, !tbaa !35
  %87 = load ptr, ptr %8, align 8, !tbaa !38
  %88 = load i32, ptr %11, align 4, !tbaa !37
  %89 = sext i32 %88 to i64
  %90 = getelementptr inbounds ptr, ptr %87, i64 %89
  %91 = load ptr, ptr %90, align 8, !tbaa !35
  %92 = load ptr, ptr %8, align 8, !tbaa !38
  %93 = load i32, ptr %11, align 4, !tbaa !37
  %94 = sub nsw i32 %93, 1
  %95 = sext i32 %94 to i64
  %96 = getelementptr inbounds ptr, ptr %92, i64 %95
  store ptr %91, ptr %96, align 8, !tbaa !35
  %97 = load ptr, ptr %13, align 8, !tbaa !35
  %98 = load ptr, ptr %8, align 8, !tbaa !38
  %99 = load i32, ptr %11, align 4, !tbaa !37
  %100 = sext i32 %99 to i64
  %101 = getelementptr inbounds ptr, ptr %98, i64 %100
  store ptr %97, ptr %101, align 8, !tbaa !35
  call void @llvm.lifetime.end.p0(i64 8, ptr %13) #6
  br label %102

102:                                              ; preds = %80, %42
  br label %103

103:                                              ; preds = %102
  %104 = load i32, ptr %11, align 4, !tbaa !37
  %105 = add nsw i32 %104, -1
  store i32 %105, ptr %11, align 4, !tbaa !37
  br label %39, !llvm.loop !41

106:                                              ; preds = %39
  br label %107

107:                                              ; preds = %106, %35
  %108 = load i32, ptr %10, align 4, !tbaa !37
  %109 = add nsw i32 %108, 1
  store i32 %109, ptr %10, align 4, !tbaa !37
  br label %14, !llvm.loop !43

110:                                              ; preds = %23
  call void @llvm.lifetime.end.p0(i64 4, ptr %12) #6
  call void @llvm.lifetime.end.p0(i64 4, ptr %11) #6
  call void @llvm.lifetime.end.p0(i64 4, ptr %10) #6
  call void @llvm.lifetime.end.p0(i64 8, ptr %9) #6
  ret void
}

; Function Attrs: nounwind uwtable
define float @Abc_ObjDelayDegree(ptr noundef %0, ptr noundef %1, i32 noundef %2) #0 {
  %4 = alloca ptr, align 8
  %5 = alloca ptr, align 8
  %6 = alloca i32, align 4
  %7 = alloca i32, align 4
  %8 = alloca float, align 4
  %9 = alloca float, align 4
  %10 = alloca [6 x ptr], align 16
  store ptr %0, ptr %4, align 8, !tbaa !10
  store ptr %1, ptr %5, align 8, !tbaa !35
  store i32 %2, ptr %6, align 4, !tbaa !37
  call void @llvm.lifetime.start.p0(i64 4, ptr %7) #6
  call void @llvm.lifetime.start.p0(i64 4, ptr %8) #6
  store float 0.000000e+00, ptr %8, align 4, !tbaa !40
  call void @llvm.lifetime.start.p0(i64 4, ptr %9) #6
  call void @llvm.lifetime.start.p0(i64 48, ptr %10) #6
  %11 = load ptr, ptr %4, align 8, !tbaa !10
  %12 = load ptr, ptr %5, align 8, !tbaa !35
  %13 = load ptr, ptr %4, align 8, !tbaa !10
  %14 = getelementptr inbounds nuw %struct.Abc_IffMan_t_, ptr %13, i32 0, i32 1
  %15 = load ptr, ptr %14, align 8, !tbaa !16
  %16 = getelementptr inbounds nuw %struct.Ifif_Par_t_, ptr %15, i32 0, i32 4
  %17 = load i32, ptr %16, align 4, !tbaa !56
  %18 = getelementptr inbounds [6 x ptr], ptr %10, i64 0, i64 0
  call void @Abc_ObjSortByDelay(ptr noundef %11, ptr noundef %12, i32 noundef %17, ptr noundef %18)
  store i32 0, ptr %7, align 4, !tbaa !37
  br label %19

19:                                               ; preds = %80, %3
  %20 = load i32, ptr %7, align 4, !tbaa !37
  %21 = load ptr, ptr %5, align 8, !tbaa !35
  %22 = call i32 @Abc_ObjFaninNum(ptr noundef %21)
  %23 = icmp slt i32 %20, %22
  br i1 %23, label %24, label %83

24:                                               ; preds = %19
  %25 = load ptr, ptr %4, align 8, !tbaa !10
  %26 = load i32, ptr %7, align 4, !tbaa !37
  %27 = sext i32 %26 to i64
  %28 = getelementptr inbounds [6 x ptr], ptr %10, i64 0, i64 %27
  %29 = load ptr, ptr %28, align 8, !tbaa !35
  %30 = load ptr, ptr %4, align 8, !tbaa !10
  %31 = getelementptr inbounds nuw %struct.Abc_IffMan_t_, ptr %30, i32 0, i32 1
  %32 = load ptr, ptr %31, align 8, !tbaa !16
  %33 = getelementptr inbounds nuw %struct.Ifif_Par_t_, ptr %32, i32 0, i32 4
  %34 = load i32, ptr %33, align 4, !tbaa !56
  %35 = call float @Abc_IffDelay(ptr noundef %25, ptr noundef %29, i32 noundef %34)
  %36 = load ptr, ptr %4, align 8, !tbaa !10
  %37 = getelementptr inbounds nuw %struct.Abc_IffMan_t_, ptr %36, i32 0, i32 1
  %38 = load ptr, ptr %37, align 8, !tbaa !16
  %39 = getelementptr inbounds nuw %struct.Ifif_Par_t_, ptr %38, i32 0, i32 2
  %40 = load i32, ptr %7, align 4, !tbaa !37
  %41 = sext i32 %40 to i64
  %42 = getelementptr inbounds [32 x float], ptr %39, i64 0, i64 %41
  %43 = load float, ptr %42, align 4, !tbaa !40
  %44 = fadd float %35, %43
  store float %44, ptr %9, align 4, !tbaa !40
  %45 = load i32, ptr %7, align 4, !tbaa !37
  %46 = icmp eq i32 %45, 0
  br i1 %46, label %47, label %76

47:                                               ; preds = %24
  %48 = load i32, ptr %6, align 4, !tbaa !37
  %49 = icmp sgt i32 %48, 0
  br i1 %49, label %50, label %76

50:                                               ; preds = %47
  %51 = load float, ptr %9, align 4, !tbaa !40
  %52 = load ptr, ptr %4, align 8, !tbaa !10
  %53 = load i32, ptr %7, align 4, !tbaa !37
  %54 = sext i32 %53 to i64
  %55 = getelementptr inbounds [6 x ptr], ptr %10, i64 0, i64 %54
  %56 = load ptr, ptr %55, align 8, !tbaa !35
  %57 = load i32, ptr %6, align 4, !tbaa !37
  %58 = sub nsw i32 %57, 1
  %59 = call float @Abc_IffDelay(ptr noundef %52, ptr noundef %56, i32 noundef %58)
  %60 = load ptr, ptr %4, align 8, !tbaa !10
  %61 = getelementptr inbounds nuw %struct.Abc_IffMan_t_, ptr %60, i32 0, i32 1
  %62 = load ptr, ptr %61, align 8, !tbaa !16
  %63 = getelementptr inbounds nuw %struct.Ifif_Par_t_, ptr %62, i32 0, i32 2
  %64 = load i32, ptr %7, align 4, !tbaa !37
  %65 = sext i32 %64 to i64
  %66 = getelementptr inbounds [32 x float], ptr %63, i64 0, i64 %65
  %67 = load float, ptr %66, align 4, !tbaa !40
  %68 = fadd float %59, %67
  %69 = load ptr, ptr %4, align 8, !tbaa !10
  %70 = getelementptr inbounds nuw %struct.Abc_IffMan_t_, ptr %69, i32 0, i32 1
  %71 = load ptr, ptr %70, align 8, !tbaa !16
  %72 = getelementptr inbounds nuw %struct.Ifif_Par_t_, ptr %71, i32 0, i32 3
  %73 = load float, ptr %72, align 8, !tbaa !52
  %74 = fsub float %68, %73
  %75 = call float @Abc_MinFloat(float noundef %51, float noundef %74)
  store float %75, ptr %9, align 4, !tbaa !40
  br label %76

76:                                               ; preds = %50, %47, %24
  %77 = load float, ptr %8, align 4, !tbaa !40
  %78 = load float, ptr %9, align 4, !tbaa !40
  %79 = call float @Abc_MaxFloat(float noundef %77, float noundef %78)
  store float %79, ptr %8, align 4, !tbaa !40
  br label %80

80:                                               ; preds = %76
  %81 = load i32, ptr %7, align 4, !tbaa !37
  %82 = add nsw i32 %81, 1
  store i32 %82, ptr %7, align 4, !tbaa !37
  br label %19, !llvm.loop !59

83:                                               ; preds = %19
  %84 = load float, ptr %8, align 4, !tbaa !40
  call void @llvm.lifetime.end.p0(i64 48, ptr %10) #6
  call void @llvm.lifetime.end.p0(i64 4, ptr %9) #6
  call void @llvm.lifetime.end.p0(i64 4, ptr %8) #6
  call void @llvm.lifetime.end.p0(i64 4, ptr %7) #6
  ret float %84
}