; Function Attrs: nofree norecurse nosync nounwind memory(read, inaccessiblemem: none) uwtable
define float @Abc_ObjDelayDegree(ptr noundef readonly captures(none) %0, ptr noundef readonly captures(none) %1, i32 noundef %2) local_unnamed_addr #6 {
  %4 = alloca [6 x ptr], align 16
  call void @llvm.lifetime.start.p0(i64 48, ptr nonnull %4) #13
  %5 = getelementptr inbounds nuw i8, ptr %0, i64 8
  %6 = load ptr, ptr %5, align 8, !tbaa !12
  %7 = getelementptr inbounds nuw i8, ptr %6, i64 148
  %8 = load i32, ptr %7, align 4, !tbaa !48
  %9 = getelementptr i8, ptr %1, i64 28
  %.val.i = load i32, ptr %9, align 4, !tbaa !33
  %10 = icmp sgt i32 %.val.i, 0
  br i1 %10, label %.lr.ph48.i, label %._crit_edge

.lr.ph48.i:                                       ; preds = %3
  %.val34.i = load ptr, ptr %1, align 8, !tbaa !36
  %11 = getelementptr i8, ptr %1, i64 32
  %.val35.i = load ptr, ptr %11, align 8, !tbaa !37
  %12 = getelementptr i8, ptr %.val34.i, i64 32
  %.val34.val.i = load ptr, ptr %12, align 8, !tbaa !13
  %13 = getelementptr i8, ptr %.val34.val.i, i64 8
  %.val34.val.val.i = load ptr, ptr %13, align 8, !tbaa !38
  %14 = getelementptr i8, ptr %0, i64 24
  %15 = sext i32 %8 to i64
  %wide.trip.count.i = zext nneg i32 %.val.i to i64
  %16 = getelementptr inbounds nuw i8, ptr %6, i64 16
  br label %17

17:                                               ; preds = %.loopexit.i, %.lr.ph48.i
  %indvars.iv.i = phi i64 [ 0, %.lr.ph48.i ], [ %indvars.iv.next.i, %.loopexit.i ]
  %18 = getelementptr inbounds nuw i32, ptr %.val35.i, i64 %indvars.iv.i
  %19 = load i32, ptr %18, align 4, !tbaa !39
  %20 = sext i32 %19 to i64
  %21 = getelementptr inbounds ptr, ptr %.val34.val.val.i, i64 %20
  %22 = load ptr, ptr %21, align 8, !tbaa !40
  %indvars.iv.next.i = add nuw nsw i64 %indvars.iv.i, 1
  %23 = getelementptr inbounds nuw ptr, ptr %4, i64 %indvars.iv.i
  store ptr %22, ptr %23, align 8, !tbaa !41
  %24 = getelementptr i8, ptr %22, i64 20
  %.val36.i = load i32, ptr %24, align 4
  %25 = and i32 %.val36.i, 15
  switch i32 %25, label %.preheader.i [
    i32 5, label %.loopexit.i
    i32 2, label %.loopexit.i
  ]

.preheader.i:                                     ; preds = %17
  %.not.i = icmp eq i64 %indvars.iv.i, 0
  br i1 %.not.i, label %.loopexit.i, label %.lr.ph.i

.lr.ph.i:                                         ; preds = %.preheader.i
  %.val37.i = load ptr, ptr %14, align 8, !tbaa !32
  %invariant.gep.i = getelementptr [7 x float], ptr %.val37.i, i64 0, i64 %15
  %.phi.trans.insert.i = getelementptr inbounds nuw [32 x float], ptr %16, i64 0, i64 %indvars.iv.i
  %.pre.i = load float, ptr %.phi.trans.insert.i, align 4, !tbaa !42
  br label %26

26:                                               ; preds = %44, %.lr.ph.i
  %27 = phi float [ %.pre.i, %.lr.ph.i ], [ %35, %44 ]
  %28 = phi ptr [ %22, %.lr.ph.i ], [ %45, %44 ]
  %indvars.iv49.i = phi i64 [ %indvars.iv.i, %.lr.ph.i ], [ %indvars.iv.next50.i, %44 ]
  %indvars.iv.next50.i = add nsw i64 %indvars.iv49.i, -1
  %29 = getelementptr inbounds nuw ptr, ptr %4, i64 %indvars.iv.next50.i
  %30 = load ptr, ptr %29, align 8, !tbaa !41
  %31 = getelementptr i8, ptr %30, i64 16
  %.val38.i = load i32, ptr %31, align 8, !tbaa !43
  %32 = sext i32 %.val38.i to i64
  %gep.i = getelementptr %struct.Abc_IffObj_t_, ptr %invariant.gep.i, i64 %32
  %33 = load float, ptr %gep.i, align 4, !tbaa !42
  %34 = getelementptr inbounds nuw [32 x float], ptr %16, i64 0, i64 %indvars.iv.next50.i
  %35 = load float, ptr %34, align 4, !tbaa !42
  %36 = fadd float %33, %35
  %37 = getelementptr i8, ptr %28, i64 16
  %.val40.i = load i32, ptr %37, align 8, !tbaa !43
  %38 = sext i32 %.val40.i to i64
  %gep45.i = getelementptr %struct.Abc_IffObj_t_, ptr %invariant.gep.i, i64 %38
  %39 = load float, ptr %gep45.i, align 4, !tbaa !42
  %40 = fadd float %27, %39
  %41 = fcmp olt float %36, %40
  br i1 %41, label %42, label %44

42:                                               ; preds = %26
  %43 = getelementptr inbounds nuw ptr, ptr %4, i64 %indvars.iv49.i
  store ptr %28, ptr %29, align 8, !tbaa !41
  store ptr %30, ptr %43, align 8, !tbaa !41
  br label %44

44:                                               ; preds = %42, %26
  %45 = phi ptr [ %30, %26 ], [ %28, %42 ]
  %46 = icmp sgt i64 %indvars.iv49.i, 1
  br i1 %46, label %26, label %.loopexit.i, !llvm.loop !44

.loopexit.i:                                      ; preds = %44, %.preheader.i, %17, %17
  %exitcond.not.i = icmp eq i64 %indvars.iv.next.i, %wide.trip.count.i
  br i1 %exitcond.not.i, label %.lr.ph, label %17, !llvm.loop !46

.lr.ph:                                           ; preds = %.loopexit.i
  %47 = getelementptr i8, ptr %0, i64 24
  %.val28 = load ptr, ptr %47, align 8, !tbaa !32
  %48 = sext i32 %8 to i64
  %49 = getelementptr inbounds nuw i8, ptr %6, i64 16
  %50 = icmp sgt i32 %2, 0
  %51 = add nsw i32 %2, -1
  %52 = zext nneg i32 %51 to i64
  %53 = getelementptr inbounds nuw i8, ptr %6, i64 144
  br i1 %50, label %.lr.ph.split.preheader, label %.lr.ph.split.us

.lr.ph.split.preheader:                           ; preds = %.lr.ph
  %wide.trip.count38 = zext nneg i32 %.val.i to i64
  br label %.lr.ph.split

.lr.ph.split.us:                                  ; preds = %.lr.ph
  %invariant.gep = getelementptr [7 x float], ptr %.val28, i64 0, i64 %48
  %wide.trip.count = zext nneg i32 %.val.i to i64
  br label %54

54:                                               ; preds = %54, %.lr.ph.split.us
  %indvars.iv = phi i64 [ %indvars.iv.next, %54 ], [ 0, %.lr.ph.split.us ]
  %.02331.us = phi float [ %64, %54 ], [ 0.000000e+00, %.lr.ph.split.us ]
  %55 = getelementptr inbounds nuw [6 x ptr], ptr %4, i64 0, i64 %indvars.iv
  %56 = load ptr, ptr %55, align 8, !tbaa !41
  %57 = getelementptr i8, ptr %56, i64 16
  %.val29.us = load i32, ptr %57, align 8, !tbaa !43
  %58 = sext i32 %.val29.us to i64
  %gep = getelementptr %struct.Abc_IffObj_t_, ptr %invariant.gep, i64 %58
  %59 = load float, ptr %gep, align 4, !tbaa !42
  %60 = getelementptr inbounds nuw [32 x float], ptr %49, i64 0, i64 %indvars.iv
  %61 = load float, ptr %60, align 4, !tbaa !42
  %62 = fadd float %59, %61
  %63 = fcmp ogt float %.02331.us, %62
  %64 = select i1 %63, float %.02331.us, float %62
  %indvars.iv.next = add nuw nsw i64 %indvars.iv, 1
  %exitcond.not = icmp eq i64 %indvars.iv.next, %wide.trip.count
  br i1 %exitcond.not, label %._crit_edge, label %54, !llvm.loop !53

.lr.ph.split:                                     ; preds = %.lr.ph.split.preheader, %84
  %indvars.iv35 = phi i64 [ 0, %.lr.ph.split.preheader ], [ %indvars.iv.next36, %84 ]
  %.02331 = phi float [ 0.000000e+00, %.lr.ph.split.preheader ], [ %86, %84 ]
  %65 = getelementptr inbounds nuw [6 x ptr], ptr %4, i64 0, i64 %indvars.iv35
  %66 = load ptr, ptr %65, align 8, !tbaa !41
  %67 = getelementptr i8, ptr %66, i64 16
  %.val29 = load i32, ptr %67, align 8, !tbaa !43
  %68 = sext i32 %.val29 to i64
  %69 = getelementptr inbounds %struct.Abc_IffObj_t_, ptr %.val28, i64 %68
  %70 = getelementptr inbounds [7 x float], ptr %69, i64 0, i64 %48
  %71 = load float, ptr %70, align 4, !tbaa !42
  %72 = getelementptr inbounds nuw [32 x float], ptr %49, i64 0, i64 %indvars.iv35
  %73 = load float, ptr %72, align 4, !tbaa !42
  %74 = fadd float %71, %73
  %75 = icmp eq i64 %indvars.iv35, 0
  br i1 %75, label %76, label %84

76:                                               ; preds = %.lr.ph.split
  %77 = getelementptr inbounds nuw [7 x float], ptr %69, i64 0, i64 %52
  %78 = load float, ptr %77, align 4, !tbaa !42
  %79 = fadd float %73, %78
  %80 = load float, ptr %53, align 8, !tbaa !51
  %81 = fsub float %79, %80
  %82 = fcmp olt float %74, %81
  %83 = select i1 %82, float %74, float %81
  br label %84

84:                                               ; preds = %76, %.lr.ph.split
  %.0 = phi float [ %83, %76 ], [ %74, %.lr.ph.split ]
  %85 = fcmp ogt float %.02331, %.0
  %86 = select i1 %85, float %.02331, float %.0
  %indvars.iv.next36 = add nuw nsw i64 %indvars.iv35, 1
  %exitcond39.not = icmp eq i64 %indvars.iv.next36, %wide.trip.count38
  br i1 %exitcond39.not, label %._crit_edge, label %.lr.ph.split, !llvm.loop !53

._crit_edge:                                      ; preds = %54, %84, %3
  %.023.lcssa = phi float [ 0.000000e+00, %3 ], [ %86, %84 ], [ %64, %54 ]
  call void @llvm.lifetime.end.p0(i64 48, ptr nonnull %4) #13
  ret float %.023.lcssa
}